(dp0
S'hilde:6'
p1
ccopy_reg
_reconstructor
p2
(csae.kvdb
_CacheEntry
p3
c__builtin__
object
p4
Ntp5
Rp6
(dp7
S'locked'
p8
I00
sS'value'
p9
S'd'
p10
sS'flags'
p11
I0
sS'expiration'
p12
F1448721183.406609
sS'created_time'
p13
F1448721183.406609
sS'will_expire'
p14
I00
sbsS'hilde:5'
p15
g2
(g3
g4
Ntp16
Rp17
(dp18
g8
I00
sg9
S'e'
p19
sg11
I0
sg12
F1448721172.316252
sg13
F1448721172.316252
sg14
I00
sbsS'hilde:4'
p20
g2
(g3
g4
Ntp21
Rp22
(dp23
g8
I00
sg9
S'eg'
p24
sg11
I0
sg12
F1448721081.739585
sg13
F1448721081.739585
sg14
I00
sbsS'hilde:3'
p25
g2
(g3
g4
Ntp26
Rp27
(dp28
g8
I00
sg9
S'eg'
p29
sg11
I0
sg12
F1448721037.926635
sg13
F1448721037.926635
sg14
I00
sbsS'hilde:2'
p30
g2
(g3
g4
Ntp31
Rp32
(dp33
g8
I00
sg9
S'e'
p34
sg11
I0
sg12
F1448721035.136718
sg13
F1448721035.136718
sg14
I00
sbsS'hilde:1'
p35
g2
(g3
g4
Ntp36
Rp37
(dp38
g8
I00
sg9
S'd'
p39
sg11
I0
sg12
F1448721031.638134
sg13
F1448721031.638134
sg14
I00
sbs.